target datalayout = "e-m:e-p270:32:32-p271:32:32-p272:64:64-i64:64-i128:128-f80:128-n8:16:32:64-S128"
target triple = "x86_64-pc-linux-gnu"

%struct._zend_array = type { %struct._zend_refcounted_h, %union.anon.17, i32, %union.anon.19, i32, i32, i32, i32, i64, ptr }
%struct._zend_refcounted_h = type { i32, %union.anon.16 }
%union.anon.16 = type { i32 }
%union.anon.17 = type { i32 }
%union.anon.19 = type { ptr }
%struct._zend_stack = type { i32, i32, i32, ptr }
%struct._zend_string = type { %struct._zend_refcounted_h, i64, i64, [1 x i8] }
%struct._zend_executor_globals = type { %struct._zval_struct, %struct._zval_struct, [32 x ptr], ptr, ptr, %struct._zend_array, %struct._zend_array, ptr, i32, i32, ptr, ptr, ptr, ptr, ptr, ptr, i64, ptr, ptr, i32, i32, i64, i32, i32, i32, i8, i8, %struct.zend_atomic_bool_s, %struct.zend_atomic_bool_s, ptr, i64, ptr, ptr, %struct._zend_array, %struct._zend_array, i32, i8, %struct._zval_struct, %struct._zval_struct, %struct._zend_stack, %struct._zend_stack, %struct._zend_stack, ptr, i32, i32, i64, ptr, ptr, ptr, %struct._zend_objects_store, ptr, ptr, ptr, [3 x %struct._zend_op], ptr, i8, i8, i64, i32, i32, ptr, [16 x %struct._HashTableIterator], ptr, %union._zend_function, %struct._zend_op, %struct._zend_array, i64, %struct.zend_get_gc_buffer, ptr, ptr, ptr, i64, i8, i32, ptr, ptr, i64, %struct._zend_call_stack, i64, i64, [6 x ptr] }
%struct.zend_atomic_bool_s = type { i8 }
%struct._zval_struct = type { %union._zend_value, %union.anon.21, %union.anon.24 }
%union._zend_value = type { i64 }
%union.anon.21 = type { i32 }
%union.anon.24 = type { i32 }
%struct._zend_objects_store = type { ptr, i32, i32, i32 }
%struct._HashTableIterator = type { ptr, i32, i32 }
%union._zend_function = type { %struct._zend_op_array }
%struct._zend_op_array = type { i8, [3 x i8], i32, ptr, ptr, ptr, i32, i32, ptr, ptr, ptr, ptr, i32, i32, i32, i32, ptr, ptr, ptr, ptr, ptr, i32, i32, ptr, ptr, ptr, i32, i32, i32, i32, ptr, ptr, [6 x ptr] }
%struct._zend_op = type { ptr, %union._znode_op, %union._znode_op, %union._znode_op, i32, i32, i8, i8, i8, i8 }
%union._znode_op = type { i32 }
%struct.zend_get_gc_buffer = type { ptr, ptr, ptr }
%struct._zend_call_stack = type { ptr, i64 }
%struct._zend_execute_data = type { ptr, ptr, ptr, ptr, %struct._zval_struct, ptr, ptr, ptr, ptr }
%struct._zend_reference = type { %struct._zend_refcounted_h, %struct._zval_struct, %union.zend_property_info_source_list }
%union.zend_property_info_source_list = type { ptr }

@executor_globals = external global %struct._zend_executor_globals, align 8
@zend_known_strings = external global ptr, align 8
@.str.119 = private unnamed_addr constant [23 x i8] c"Undefined variable $%S\00", align 1
@.str.127 = private unnamed_addr constant [27 x i8] c"Illegal string offset \22%s\22\00", align 1
@.str.128 = private unnamed_addr constant [28 x i8] c"String offset cast occurred\00", align 1

; Function Attrs: nounwind uwtable
define internal i32 @zend_jit_undefined_op_helper(i32 noundef %0) #0 {
  %2 = alloca i32, align 4
  %3 = alloca ptr, align 8
  %4 = alloca ptr, align 8
  store i32 %0, ptr %2, align 4
  %5 = load ptr, ptr getelementptr inbounds (%struct._zend_executor_globals, ptr @executor_globals, i32 0, i32 17), align 8
  store ptr %5, ptr %3, align 8
  %6 = load ptr, ptr %3, align 8
  %7 = getelementptr inbounds %struct._zend_execute_data, ptr %6, i32 0, i32 3
  %8 = load ptr, ptr %7, align 8
  %9 = getelementptr inbounds %struct._zend_op_array, ptr %8, i32 0, i32 19
  %10 = load ptr, ptr %9, align 8
  %11 = load i32, ptr %2, align 4
  %12 = zext i32 %11 to i64
  %13 = udiv i64 %12, 16
  %14 = sub i64 %13, 5
  %15 = trunc i64 %14 to i32
  %16 = zext i32 %15 to i64
  %17 = getelementptr inbounds ptr, ptr %10, i64 %16
  %18 = load ptr, ptr %17, align 8
  store ptr %18, ptr %4, align 8
  %19 = load ptr, ptr %4, align 8
  call void (i32, ptr, ...) @zend_error_unchecked(i32 noundef 2, ptr noundef @.str.119, ptr noundef %19)
  %20 = load ptr, ptr getelementptr inbounds (%struct._zend_executor_globals, ptr @executor_globals, i32 0, i32 50), align 8
  %21 = icmp eq ptr %20, null
  %22 = zext i1 %21 to i32
  ret i32 %22
}

; Function Attrs: nounwind uwtable
define internal i64 @zend_check_string_offset(ptr noundef %0, i32 noundef %1) #0 {
  %3 = alloca i8, align 1
  %4 = alloca ptr, align 8
  %5 = alloca i64, align 8
  %6 = alloca ptr, align 8
  %7 = alloca ptr, align 8
  %8 = alloca i8, align 1
  %9 = alloca ptr, align 8
  %10 = alloca ptr, align 8
  %11 = alloca ptr, align 8
  %12 = alloca i64, align 8
  %13 = alloca ptr, align 8
  %14 = alloca i32, align 4
  %15 = alloca i64, align 8
  %16 = alloca i8, align 1
  store ptr %0, ptr %13, align 8
  store i32 %1, ptr %14, align 4
  br label %17

17:                                               ; preds = %94, %2
  %18 = load ptr, ptr %13, align 8
  store ptr %18, ptr %11, align 8
  %19 = load ptr, ptr %11, align 8
  %20 = getelementptr inbounds %struct._zval_struct, ptr %19, i32 0, i32 1
  %21 = load i8, ptr %20, align 8
  %22 = zext i8 %21 to i32
  switch i32 %22, label %99 [
    i32 4, label %23
    i32 6, label %27
    i32 0, label %86
    i32 5, label %93
    i32 1, label %93
    i32 2, label %93
    i32 3, label %93
    i32 10, label %94
  ]

23:                                               ; preds = %17
  %24 = load ptr, ptr %13, align 8
  %25 = getelementptr inbounds %struct._zval_struct, ptr %24, i32 0, i32 0
  %26 = load i64, ptr %25, align 8
  store i64 %26, ptr %12, align 8
  br label %108

27:                                               ; preds = %17
  store i8 0, ptr %16, align 1
  %28 = load ptr, ptr %13, align 8
  %29 = getelementptr inbounds %struct._zval_struct, ptr %28, i32 0, i32 0
  %30 = load ptr, ptr %29, align 8
  %31 = getelementptr inbounds %struct._zend_string, ptr %30, i32 0, i32 3
  %32 = getelementptr inbounds [1 x i8], ptr %31, i64 0, i64 0
  %33 = load ptr, ptr %13, align 8
  %34 = getelementptr inbounds %struct._zval_struct, ptr %33, i32 0, i32 0
  %35 = load ptr, ptr %34, align 8
  %36 = getelementptr inbounds %struct._zend_string, ptr %35, i32 0, i32 2
  %37 = load i64, ptr %36, align 8
  store ptr %32, ptr %4, align 8
  store i64 %37, ptr %5, align 8
  store ptr %15, ptr %6, align 8
  store ptr null, ptr %7, align 8
  store i8 1, ptr %8, align 1
  store ptr null, ptr %9, align 8
  store ptr %16, ptr %10, align 8
  %38 = load ptr, ptr %4, align 8
  %39 = load i8, ptr %38, align 1
  %40 = sext i8 %39 to i32
  %41 = icmp sgt i32 %40, 57
  br i1 %41, label %42, label %43

42:                                               ; preds = %27
  store i8 0, ptr %3, align 1
  br label %53

43:                                               ; preds = %27
  %44 = load ptr, ptr %4, align 8
  %45 = load i64, ptr %5, align 8
  %46 = load ptr, ptr %6, align 8
  %47 = load ptr, ptr %7, align 8
  %48 = load i8, ptr %8, align 1
  %49 = trunc i8 %48 to i1
  %50 = load ptr, ptr %9, align 8
  %51 = load ptr, ptr %10, align 8
  %52 = call zeroext i8 @_is_numeric_string_ex(ptr noundef %44, i64 noundef %45, ptr noundef %46, ptr noundef %47, i1 noundef zeroext %49, ptr noundef %50, ptr noundef %51) #17
  store i8 %52, ptr %3, align 1
  br label %53

53:                                               ; preds = %43, %42
  %54 = load i8, ptr %3, align 1
  %55 = zext i8 %54 to i32
  %56 = icmp eq i32 4, %55
  br i1 %56, label %57, label %81

57:                                               ; preds = %53
  %58 = load i8, ptr %16, align 1
  %59 = trunc i8 %58 to i1
  %60 = xor i1 %59, true
  %61 = xor i1 %60, true
  %62 = zext i1 %61 to i32
  %63 = sext i32 %62 to i64
  %64 = icmp ne i64 %63, 0
  br i1 %64, label %65, label %79

65:                                               ; preds = %57
  %66 = load ptr, ptr getelementptr inbounds (%struct._zend_executor_globals, ptr @executor_globals, i32 0, i32 17), align 8
  %67 = getelementptr inbounds %struct._zend_execute_data, ptr %66, i32 0, i32 0
  %68 = load ptr, ptr %67, align 8
  %69 = getelementptr inbounds %struct._zend_op, ptr %68, i32 0, i32 6
  %70 = load i8, ptr %69, align 4
  %71 = zext i8 %70 to i32
  %72 = icmp ne i32 %71, 96
  br i1 %72, label %73, label %79

73:                                               ; preds = %65
  %74 = load ptr, ptr %13, align 8
  %75 = getelementptr inbounds %struct._zval_struct, ptr %74, i32 0, i32 0
  %76 = load ptr, ptr %75, align 8
  %77 = getelementptr inbounds %struct._zend_string, ptr %76, i32 0, i32 3
  %78 = getelementptr inbounds [1 x i8], ptr %77, i64 0, i64 0
  call void (i32, ptr, ...) @zend_error(i32 noundef 2, ptr noundef @.str.127, ptr noundef %78)
  br label %79

79:                                               ; preds = %73, %65, %57
  %80 = load i64, ptr %15, align 8
  store i64 %80, ptr %12, align 8
  br label %108

81:                                               ; preds = %53
  %82 = load ptr, ptr @zend_known_strings, align 8
  %83 = getelementptr inbounds ptr, ptr %82, i64 27
  %84 = load ptr, ptr %83, align 8
  %85 = load ptr, ptr %13, align 8
  call void @zend_illegal_container_offset(ptr noundef %84, ptr noundef %85, i32 noundef 0)
  store i64 0, ptr %12, align 8
  br label %108

86:                                               ; preds = %17
  %87 = load ptr, ptr getelementptr inbounds (%struct._zend_executor_globals, ptr @executor_globals, i32 0, i32 17), align 8
  %88 = getelementptr inbounds %struct._zend_execute_data, ptr %87, i32 0, i32 0
  %89 = load ptr, ptr %88, align 8
  %90 = getelementptr inbounds %struct._zend_op, ptr %89, i32 0, i32 2
  %91 = load i32, ptr %90, align 4
  %92 = call i32 @zend_jit_undefined_op_helper(i32 noundef %91)
  br label %93

93:                                               ; preds = %86, %17, %17, %17, %17
  call void (i32, ptr, ...) @zend_error(i32 noundef 2, ptr noundef @.str.128)
  br label %105

94:                                               ; preds = %17
  %95 = load ptr, ptr %13, align 8
  %96 = getelementptr inbounds %struct._zval_struct, ptr %95, i32 0, i32 0
  %97 = load ptr, ptr %96, align 8
  %98 = getelementptr inbounds %struct._zend_reference, ptr %97, i32 0, i32 1
  store ptr %98, ptr %13, align 8
  br label %17

99:                                               ; preds = %17
  %100 = load ptr, ptr @zend_known_strings, align 8
  %101 = getelementptr inbounds ptr, ptr %100, i64 27
  %102 = load ptr, ptr %101, align 8
  %103 = load ptr, ptr %13, align 8
  %104 = load i32, ptr %14, align 4
  call void @zend_illegal_container_offset(ptr noundef %102, ptr noundef %103, i32 noundef %104)
  store i64 0, ptr %12, align 8
  br label %108

105:                                              ; preds = %93
  %106 = load ptr, ptr %13, align 8
  %107 = call i64 @zval_get_long_func(ptr noundef %106, i1 noundef zeroext false)
  store i64 %107, ptr %12, align 8
  br label %108

108:                                              ; preds = %105, %99, %81, %79, %23
  %109 = load i64, ptr %12, align 8
  ret i64 %109
}