; Function Attrs: nounwind uwtable
define internal fastcc i64 @zend_check_string_offset(ptr noundef %0, i32 noundef %1) unnamed_addr #0 {
  %3 = alloca i64, align 8
  %4 = alloca i8, align 1
  br label %5

5:                                                ; preds = %51, %2
  %.020 = phi ptr [ %0, %2 ], [ %53, %51 ]
  %6 = getelementptr inbounds i8, ptr %.020, i64 8
  %7 = load i8, ptr %6, align 8
  switch i8 %7, label %54 [
    i8 4, label %8
    i8 6, label %10
    i8 0, label %36
    i8 5, label %.loopexit
    i8 1, label %.loopexit
    i8 2, label %.loopexit
    i8 3, label %.loopexit
    i8 10, label %51
  ]

8:                                                ; preds = %5
  %9 = load i64, ptr %.020, align 8
  br label %58

10:                                               ; preds = %5
  store i8 0, ptr %4, align 1
  %11 = load ptr, ptr %.020, align 8
  %12 = getelementptr inbounds i8, ptr %11, i64 24
  %13 = load i8, ptr %12, align 1
  %14 = icmp sgt i8 %13, 57
  br i1 %14, label %.critedge, label %15

15:                                               ; preds = %10
  %16 = getelementptr inbounds i8, ptr %11, i64 16
  %17 = load i64, ptr %16, align 8
  %18 = call zeroext i8 @_is_numeric_string_ex(ptr noundef nonnull %12, i64 noundef %17, ptr noundef nonnull %3, ptr noundef null, i1 noundef zeroext true, ptr noundef null, ptr noundef nonnull %4) #32
  %19 = icmp eq i8 %18, 4
  br i1 %19, label %20, label %.critedge

20:                                               ; preds = %15
  %21 = load i8, ptr %4, align 1
  %22 = and i8 %21, 1
  %.not = icmp eq i8 %22, 0
  br i1 %.not, label %31, label %23

23:                                               ; preds = %20
  %24 = load ptr, ptr getelementptr inbounds (%struct._zend_executor_globals, ptr @executor_globals, i64 0, i32 17), align 8
  %25 = load ptr, ptr %24, align 8
  %26 = getelementptr inbounds i8, ptr %25, i64 28
  %27 = load i8, ptr %26, align 4
  %.not22 = icmp eq i8 %27, 96
  br i1 %.not22, label %31, label %28

28:                                               ; preds = %23
  %29 = load ptr, ptr %.020, align 8
  %30 = getelementptr inbounds i8, ptr %29, i64 24
  call void (i32, ptr, ...) @zend_error(i32 noundef 2, ptr noundef nonnull @.str.127, ptr noundef nonnull %30) #32
  br label %31

31:                                               ; preds = %28, %23, %20
  %32 = load i64, ptr %3, align 8
  br label %58

.critedge:                                        ; preds = %10, %15
  %33 = load ptr, ptr @zend_known_strings, align 8
  %34 = getelementptr inbounds i8, ptr %33, i64 216
  %35 = load ptr, ptr %34, align 8
  call void @zend_illegal_container_offset(ptr noundef %35, ptr noundef nonnull %.020, i32 noundef 0) #32
  br label %58

36:                                               ; preds = %5
  %37 = load ptr, ptr getelementptr inbounds (%struct._zend_executor_globals, ptr @executor_globals, i64 0, i32 17), align 8
  %38 = load ptr, ptr %37, align 8
  %39 = getelementptr inbounds i8, ptr %38, i64 12
  %40 = load i32, ptr %39, align 4
  %41 = getelementptr inbounds i8, ptr %37, i64 24
  %42 = load ptr, ptr %41, align 8
  %43 = getelementptr inbounds i8, ptr %42, i64 112
  %44 = load ptr, ptr %43, align 8
  %45 = lshr i32 %40, 4
  %46 = add nsw i32 %45, -5
  %47 = zext i32 %46 to i64
  %48 = getelementptr inbounds ptr, ptr %44, i64 %47
  %49 = load ptr, ptr %48, align 8
  tail call void (i32, ptr, ...) @zend_error_unchecked(i32 noundef 2, ptr noundef nonnull @.str.119, ptr noundef %49) #32
  br label %.loopexit

.loopexit:                                        ; preds = %5, %5, %5, %5, %36
  tail call void (i32, ptr, ...) @zend_error(i32 noundef 2, ptr noundef nonnull @.str.128) #32
  %50 = tail call i64 @zval_get_long_func(ptr noundef nonnull %.020, i1 noundef zeroext false) #32
  br label %58

51:                                               ; preds = %5
  %52 = load ptr, ptr %.020, align 8
  %53 = getelementptr inbounds i8, ptr %52, i64 8
  br label %5

54:                                               ; preds = %5
  %55 = load ptr, ptr @zend_known_strings, align 8
  %56 = getelementptr inbounds i8, ptr %55, i64 216
  %57 = load ptr, ptr %56, align 8
  tail call void @zend_illegal_container_offset(ptr noundef %57, ptr noundef nonnull %.020, i32 noundef %1) #32
  br label %58

58:                                               ; preds = %.loopexit, %54, %.critedge, %31, %8
  %.021 = phi i64 [ 0, %54 ], [ %50, %.loopexit ], [ %32, %31 ], [ 0, %.critedge ], [ %9, %8 ]
  ret i64 %.021
}